; Function Attrs: nounwind uwtable
define noalias nonnull ptr @l_Lean_Meta_expandCoe___lambda__3(ptr noundef %0, ptr noundef readnone captures(none) %1, ptr noundef readnone captures(none) %2, ptr noundef readnone captures(none) %3, ptr noundef readnone captures(none) %4, ptr noundef %5) local_unnamed_addr #0 {
  tail call void @lean_inc_heartbeat() #4
  %7 = tail call noalias ptr @mi_malloc_small(i64 noundef 16) #4
  %8 = icmp eq ptr %7, null
  br i1 %8, label %9, label %lean_alloc_ctor.exit

9:                                                ; preds = %6
  tail call void @lean_internal_panic_out_of_memory() #5
  unreachable

lean_alloc_ctor.exit:                             ; preds = %6
  %10 = getelementptr inbounds nuw i8, ptr %7, i64 4
  store i32 1, ptr %7, align 4, !tbaa !4
  store i32 65552, ptr %10, align 4
  %11 = getelementptr inbounds nuw i8, ptr %7, i64 8
  store ptr %0, ptr %11, align 8, !tbaa !9
  tail call void @lean_inc_heartbeat() #4
  %12 = tail call noalias ptr @mi_malloc_small(i64 noundef 24) #4
  %13 = icmp eq ptr %12, null
  br i1 %13, label %14, label %lean_alloc_ctor.exit7

14:                                               ; preds = %lean_alloc_ctor.exit
  tail call void @lean_internal_panic_out_of_memory() #5
  unreachable

lean_alloc_ctor.exit7:                            ; preds = %lean_alloc_ctor.exit
  %15 = getelementptr inbounds nuw i8, ptr %12, i64 4
  store i32 1, ptr %12, align 4, !tbaa !4
  store i32 131096, ptr %15, align 4
  %16 = getelementptr inbounds nuw i8, ptr %12, i64 8
  store ptr %7, ptr %16, align 8, !tbaa !9
  %17 = getelementptr inbounds nuw i8, ptr %12, i64 16
  store ptr %5, ptr %17, align 8, !tbaa !9
  ret ptr %12
}